(lp0
(lp1
(S'can'
p2
cnumpy.core.multiarray
scalar
p3
(cnumpy
dtype
p4
(S'f4'
p5
I0
I1
tp6
Rp7
(I3
S'<'
p8
NNNI-1
I-1
I0
tp9
bS'\xba%\xb1;'
p10
tp11
Rp12
tp13
a(S'd'
p14
g3
(g7
S'\xe6\xbc\x17;'
p15
tp16
Rp17
tp18
a(S'must'
p19
g3
(g7
S'h\xce\xba:'
p20
tp21
Rp22
tp23
a(S'would'
p24
g3
(g7
S'H\xd8\x90:'
p25
tp26
Rp27
tp28
a(S'needless'
p29
g3
(g7
S'\xf5m\x8f:'
p30
tp31
Rp32
tp33
a(S'm'
p34
g3
(g7
S'1\xd9\x8e:'
p35
tp36
Rp37
tp38
a(S'could'
p39
g3
(g7
S'\xc2F\x8d:'
p40
tp41
Rp42
tp43
a(S'will'
p44
g3
(g7
S'\xf4\xe0\x8c:'
p45
tp46
Rp47
tp48
a(S'll'
p49
g3
(g7
S'\xcd\xe7I:'
p50
tp51
Rp52
tp53
a(S'am'
p54
g3
(g7
S'\xd1\x8bD:'
p55
tp56
Rp57
tp58
aa.(lp0
(lp1
(S'can'
p2
cnumpy.core.multiarray
scalar
p3
(cnumpy
dtype
p4
(S'f4'
p5
I0
I1
tp6
Rp7
(I3
S'<'
p8
NNNI-1
I-1
I0
tp9
bS'C\xd5D;'
p10
tp11
Rp12
tp13
a(S'd'
p14
g3
(g7
S'\x94t\x06;'
p15
tp16
Rp17
tp18
a(S'must'
p19
g3
(g7
S'^g\xb9:'
p20
tp21
Rp22
tp23
a(S'would'
p24
g3
(g7
S'\xa2y\x95:'
p25
tp26
Rp27
tp28
a(S'm'
p29
g3
(g7
S'\xdd\xca\x86:'
p30
tp31
Rp32
tp33
a(S'll'
p34
g3
(g7
S'\xa2um:'
p35
tp36
Rp37
tp38
a(S'am'
p39
g3
(g7
S'\xfcCS:'
p40
tp41
Rp42
tp43
a(S'needless'
p44
g3
(g7
S'R\xc8?:'
p45
tp46
Rp47
tp48
a(S'could'
p49
g3
(g7
S'\x80w?:'
p50
tp51
Rp52
tp53
a(S'will'
p54
g3
(g7
S'#r):'
p55
tp56
Rp57
tp58
aa.(lp0
(lp1
(S'can'
p2
cnumpy.core.multiarray
scalar
p3
(cnumpy
dtype
p4
(S'f4'
p5
I0
I1
tp6
Rp7
(I3
S'<'
p8
NNNI-1
I-1
I0
tp9
bS'F\x85\xa3;'
p10
tp11
Rp12
tp13
a(S'needless'
p14
g3
(g7
S'\x18\xd7\x10;'
p15
tp16
Rp17
tp18
a(S'd'
p19
g3
(g7
S'\xf3S\x02;'
p20
tp21
Rp22
tp23
a(S'm'
p24
g3
(g7
S'\xb8\x90\xaa:'
p25
tp26
Rp27
tp28
a(S'must'
p29
g3
(g7
S'\x8fk\x95:'
p30
tp31
Rp32
tp33
a(S'could'
p34
g3
(g7
S'\x81\x08\x8a:'
p35
tp36
Rp37
tp38
a(S'will'
p39
g3
(g7
S'\x1c\xb7\x86:'
p40
tp41
Rp42
tp43
a(S'would'
p44
g3
(g7
S'["\x83:'
p45
tp46
Rp47
tp48
a(S'am'
p49
g3
(g7
S'\xb3\xaf{:'
p50
tp51
Rp52
tp53
a(S'll'
p54
g3
(g7
S'\xbe\xb2T:'
p55
tp56
Rp57
tp58
aa.(lp0
(lp1
(S'can'
p2
cnumpy.core.multiarray
scalar
p3
(cnumpy
dtype
p4
(S'f4'
p5
I0
I1
tp6
Rp7
(I3
S'<'
p8
NNNI-1
I-1
I0
tp9
bS'\xf7\xd6\x9f;'
p10
tp11
Rp12
tp13
a(S'd'
p14
g3
(g7
S'8\x97\xdf:'
p15
tp16
Rp17
tp18
a(S'must'
p19
g3
(g7
S"'\xc4\xb8:"
p20
tp21
Rp22
tp23
a(S'will'
p24
g3
(g7
S'\xdf\\\x98:'
p25
tp26
Rp27
tp28
a(S'could'
p29
g3
(g7
S'7\x00\x8a:'
p30
tp31
Rp32
tp33
a(S'would'
p34
g3
(g7
S'V\xce\x87:'
p35
tp36
Rp37
tp38
a(S'needless'
p39
g3
(g7
S'd\x97\x81:'
p40
tp41
Rp42
tp43
a(S'm'
p44
g3
(g7
S'\xf1\x0e`:'
p45
tp46
Rp47
tp48
a(S'll'
p49
g3
(g7
S'\xda\xa0\\:'
p50
tp51
Rp52
tp53
a(S'am'
p54
g3
(g7
S'ER\x1b:'
p55
tp56
Rp57
tp58
aa.(lp0
(lp1
(S'can'
p2
cnumpy.core.multiarray
scalar
p3
(cnumpy
dtype
p4
(S'f4'
p5
I0
I1
tp6
Rp7
(I3
S'<'
p8
NNNI-1
I-1
I0
tp9
bS'\xe5\x03R;'
p10
tp11
Rp12
tp13
a(S'd'
p14
g3
(g7
S'\x12\xb1\xc6:'
p15
tp16
Rp17
tp18
a(S'must'
p19
g3
(g7
S'\x93\x0f\x9e:'
p20
tp21
Rp22
tp23
a(S'would'
p24
g3
(g7
S'\xc4\x19\x99:'
p25
tp26
Rp27
tp28
a(S'will'
p29
g3
(g7
S'Z\xeb\x98:'
p30
tp31
Rp32
tp33
a(S'could'
p34
g3
(g7
S'\xacw\x93:'
p35
tp36
Rp37
tp38
a(S'll'
p39
g3
(g7
S'\xa0gm:'
p40
tp41
Rp42
tp43
a(S'needless'
p44
g3
(g7
S'\xb6Tg:'
p45
tp46
Rp47
tp48
a(S'm'
p49
g3
(g7
S'\xb3\xeeN:'
p50
tp51
Rp52
tp53
a(S'i'
p54
g3
(g7
S'Hw\xfb9'
p55
tp56
Rp57
tp58
aa.(lp0
(lp1
(S'can'
p2
cnumpy.core.multiarray
scalar
p3
(cnumpy
dtype
p4
(S'f4'
p5
I0
I1
tp6
Rp7
(I3
S'<'
p8
NNNI-1
I-1
I0
tp9
bS'\x1b\xa1\xb3;'
p10
tp11
Rp12
tp13
a(S'd'
p14
g3
(g7
S'\x08\xb3\x16;'
p15
tp16
Rp17
tp18
a(S'needless'
p19
g3
(g7
S'=5\xcb:'
p20
tp21
Rp22
tp23
a(S'must'
p24
g3
(g7
S'\xfc;\xc1:'
p25
tp26
Rp27
tp28
a(S'm'
p29
g3
(g7
S'\x95P\xb0:'
p30
tp31
Rp32
tp33
a(S'would'
p34
g3
(g7
S'\xab\x87\x8c:'
p35
tp36
Rp37
tp38
a(S'could'
p39
g3
(g7
S',\x16{:'
p40
tp41
Rp42
tp43
a(S'll'
p44
g3
(g7
S'\x0e\xb1_:'
p45
tp46
Rp47
tp48
a(S'am'
p49
g3
(g7
S'F\xe44:'
p50
tp51
Rp52
tp53
a(S'will'
p54
g3
(g7
S'\x00\x1d\x15:'
p55
tp56
Rp57
tp58
aa.(lp0
(lp1
(S'can'
p2
cnumpy.core.multiarray
scalar
p3
(cnumpy
dtype
p4
(S'f4'
p5
I0
I1
tp6
Rp7
(I3
S'<'
p8
NNNI-1
I-1
I0
tp9
bS'\xa4X_;'
p10
tp11
Rp12
tp13
a(S'd'
p14
g3
(g7
S'Y\x87\x08;'
p15
tp16
Rp17
tp18
a(S'must'
p19
g3
(g7
S'\x0f\xa1\xa3:'
p20
tp21
Rp22
tp23
a(S'will'
p24
g3
(g7
S'Pf\x99:'
p25
tp26
Rp27
tp28
a(S'would'
p29
g3
(g7
S'\xc0K~:'
p30
tp31
Rp32
tp33
a(S'll'
p34
g3
(g7
S'\xc7 }:'
p35
tp36
Rp37
tp38
a(S'could'
p39
g3
(g7
S'\xb1\xbby:'
p40
tp41
Rp42
tp43
a(S'needless'
p44
g3
(g7
S'\xd0$m:'
p45
tp46
Rp47
tp48
a(S'm'
p49
g3
(g7
S'f\x87\x17:'
p50
tp51
Rp52
tp53
a(S'i'
p54
g3
(g7
S'\xa9\x02\x04:'
p55
tp56
Rp57
tp58
aa.(lp0
(lp1
(S'can'
p2
cnumpy.core.multiarray
scalar
p3
(cnumpy
dtype
p4
(S'f4'
p5
I0
I1
tp6
Rp7
(I3
S'<'
p8
NNNI-1
I-1
I0
tp9
bS'9t\x82;'
p10
tp11
Rp12
tp13
a(S'd'
p14
g3
(g7
S"'\x10*;"
p15
tp16
Rp17
tp18
a(S'must'
p19
g3
(g7
S'\xcc\xe4\x01;'
p20
tp21
Rp22
tp23
a(S'needless'
p24
g3
(g7
S'p\xc7\x8a:'
p25
tp26
Rp27
tp28
a(S'would'
p29
g3
(g7
S'\x81u\x80:'
p30
tp31
Rp32
tp33
a(S'could'
p34
g3
(g7
S'\xba\xfac:'
p35
tp36
Rp37
tp38
a(S'will'
p39
g3
(g7
S'naa:'
p40
tp41
Rp42
tp43
a(S'm'
p44
g3
(g7
S'\xe0S\\:'
p45
tp46
Rp47
tp48
a(S'll'
p49
g3
(g7
S'\xb0mI:'
p50
tp51
Rp52
tp53
a(S'may'
p54
g3
(g7
S'\x1d\x072:'
p55
tp56
Rp57
tp58
aa.(lp0
(lp1
(S'can'
p2
cnumpy.core.multiarray
scalar
p3
(cnumpy
dtype
p4
(S'f4'
p5
I0
I1
tp6
Rp7
(I3
S'<'
p8
NNNI-1
I-1
I0
tp9
bS'\xf2&\x9e;'
p10
tp11
Rp12
tp13
a(S'must'
p14
g3
(g7
S'\x0e.\xf8:'
p15
tp16
Rp17
tp18
a(S'd'
p19
g3
(g7
S'\n\xdf\xf6:'
p20
tp21
Rp22
tp23
a(S'could'
p24
g3
(g7
S'\xeb%\x8e:'
p25
tp26
Rp27
tp28
a(S'needless'
p29
g3
(g7
S'\xa2\xb9\x84:'
p30
tp31
Rp32
tp33
a(S'm'
p34
g3
(g7
S'[$\x83:'
p35
tp36
Rp37
tp38
a(S'll'
p39
g3
(g7
S'\xf4\xd2R:'
p40
tp41
Rp42
tp43
a(S'will'
p44
g3
(g7
S'Y\xdcN:'
p45
tp46
Rp47
tp48
a(S'would'
p49
g3
(g7
S'\xf5\xedI:'
p50
tp51
Rp52
tp53
a(S'might'
p54
g3
(g7
S'!\xe6\x1a:'
p55
tp56
Rp57
tp58
aa.(lp0
(lp1
(S'can'
p2
cnumpy.core.multiarray
scalar
p3
(cnumpy
dtype
p4
(S'f4'
p5
I0
I1
tp6
Rp7
(I3
S'<'
p8
NNNI-1
I-1
I0
tp9
bS'\x1f\x9a\x7f;'
p10
tp11
Rp12
tp13
a(S'd'
p14
g3
(g7
S'\xa1\x81\x16;'
p15
tp16
Rp17
tp18
a(S'must'
p19
g3
(g7
S'H-\xca:'
p20
tp21
Rp22
tp23
a(S'will'
p24
g3
(g7
S'\x90\x9c\xa4:'
p25
tp26
Rp27
tp28
a(S'needless'
p29
g3
(g7
S'a\x19\x95:'
p30
tp31
Rp32
tp33
a(S'll'
p34
g3
(g7
S'\xed\xe4\x7f:'
p35
tp36
Rp37
tp38
a(S'would'
p39
g3
(g7
S'\x11Kr:'
p40
tp41
Rp42
tp43
a(S'm'
p44
g3
(g7
S'\x9b\x91c:'
p45
tp46
Rp47
tp48
a(S'could'
p49
g3
(g7
S'G\xefT:'
p50
tp51
Rp52
tp53
a(S'might'
p54
g3
(g7
S'\xc8.+:'
p55
tp56
Rp57
tp58
aa.